ccopy_reg
_reconstructor
p0
(cgoogle.oauth2.credentials
Credentials
p1
c__builtin__
object
p2
Ntp3
Rp4
(dp5
S'_quota_project_id'
p6
NsS'_token_uri'
p7
Vhttps://oauth2.googleapis.com/token
p8
sS'_client_secret'
p9
VjSWEcBluxWzqGgbwm4WqlsQ8
p10
sS'_id_token'
p11
NsS'token'
p12
Vya29.a0Ae4lvC2iqdthxjlQQxrIJsQEyS9Qna5TcZTGTDjtPg1ZdqWPjYxIsfYkPLZMSeTURA8_uAkQOcr4dR23MiMf6QhGSWWukDKxlqCujjcg74_yxTz8ZUs1zIw-ZZ0FCwJv_pLRlems21JAANG_wXe7cN7Ulk7cqa7TRtc
p13
sS'_refresh_token'
p14
V1//0fDrqtidRgBNOCgYIARAAGA8SNwF-L9IrZtalmlVakt9rKghvyDOavaUe-2L7HRth4OdJxSc8-rG7NousRp0qFA5rVt3ulVp-lh0
p15
sS'_scopes'
p16
(lp17
S'https://www.googleapis.com/auth/drive'
p18
asS'_client_id'
p19
V228551584816-dq2qkcbndcegufoiu3lorb0v0cmjegrn.apps.googleusercontent.com
p20
sS'expiry'
p21
cdatetime
datetime
p22
(S'\x07\xe4\x04\x11\x13-%\x00\x01\xe0'
p23
tp24
Rp25
sb.