ccopy_reg
_reconstructor
p0
(cgoogle.oauth2.credentials
Credentials
p1
c__builtin__
object
p2
Ntp3
Rp4
(dp5
S'_quota_project_id'
p6
NsS'_token_uri'
p7
Vhttps://oauth2.googleapis.com/token
p8
sS'_client_secret'
p9
VjSWEcBluxWzqGgbwm4WqlsQ8
p10
sS'_id_token'
p11
NsS'token'
p12
Vya29.a0Ae4lvC3Vq2yT5wMF_ov2tyS7H3V572h7m_1HKbSckVMrzoDsEkAWyehkvCf3qbMaRao8ZXXoo2QNwC8-w9f20I7REG0UYV1Bu2uqnIE3IeeWMPP45Hej26jZPw2hHkHXEd-6Dkjhe1r9PnhJahkifZqu9SvW9QUTPlMO
p13
sS'_refresh_token'
p14
V1//0fDrqtidRgBNOCgYIARAAGA8SNwF-L9IrZtalmlVakt9rKghvyDOavaUe-2L7HRth4OdJxSc8-rG7NousRp0qFA5rVt3ulVp-lh0
p15
sS'_scopes'
p16
(lp17
S'https://www.googleapis.com/auth/drive'
p18
asS'_client_id'
p19
V228551584816-dq2qkcbndcegufoiu3lorb0v0cmjegrn.apps.googleusercontent.com
p20
sS'expiry'
p21
cdatetime
datetime
p22
(S'\x07\xe4\x04\x14\x0086\x02\x7fV'
p23
tp24
Rp25
sb.